libStatTimer.so.2:_ZN12CpuStatTimer11getInstanceEv
libStatTimer.so.2:_ZN12CpuStatTimer11getUniqueIDERKNSt7__cxx1112basic_stringIcSt11char_traitsIcESaIcEEEj
libStatTimer.so.2:_ZN12CpuStatTimer12setNormalizeEb
libStatTimer.so.2:_ZN12CpuStatTimer13pruneOutliersEd
libStatTimer.so.2:_ZN12CpuStatTimer13pruneOutliersEmd
libStatTimer.so.2:_ZN12CpuStatTimer4StopEm
libStatTimer.so.2:_ZN12CpuStatTimer5ClearEv
libStatTimer.so.2:_ZN12CpuStatTimer5PrintEv
libStatTimer.so.2:_ZN12CpuStatTimer5ResetEv
libStatTimer.so.2:_ZN12CpuStatTimer5StartEm
libStatTimer.so.2:_ZN12CpuStatTimer7ReserveEmm
libStatTimer.so.2:_ZN12CpuStatTimer9AddSampleEmm
libStatTimer.so.2:_ZN12CpuStatTimerC1Ev
libStatTimer.so.2:_ZN12CpuStatTimerC2Ev
libStatTimer.so.2:_ZN12CpuStatTimerD0Ev
libStatTimer.so.2:_ZN12CpuStatTimerD1Ev
libStatTimer.so.2:_ZN12CpuStatTimerD2Ev
libStatTimer.so.2:_ZN12GpuStatTimer11getInstanceEv
libStatTimer.so.2:_ZN12GpuStatTimer11getUniqueIDERKNSt7__cxx1112basic_stringIcSt11char_traitsIcESaIcEEEj
libStatTimer.so.2:_ZN12GpuStatTimer11getVarianceEm
libStatTimer.so.2:_ZN12GpuStatTimer11queryOpenCLEm
libStatTimer.so.2:_ZN12GpuStatTimer12setNormalizeEb
libStatTimer.so.2:_ZN12GpuStatTimer13ReleaseEventsEv
libStatTimer.so.2:_ZN12GpuStatTimer13pruneOutliersEd
libStatTimer.so.2:_ZN12GpuStatTimer13pruneOutliersEmd
libStatTimer.so.2:_ZN12GpuStatTimer14getAverageTimeEm
libStatTimer.so.2:_ZN12GpuStatTimer14getMinimumTimeEm
libStatTimer.so.2:_ZN12GpuStatTimer4StopEm
libStatTimer.so.2:_ZN12GpuStatTimer5ClearEv
libStatTimer.so.2:_ZN12GpuStatTimer5PrintEv
libStatTimer.so.2:_ZN12GpuStatTimer5ResetEv
libStatTimer.so.2:_ZN12GpuStatTimer5StartEm
libStatTimer.so.2:_ZN12GpuStatTimer7ReserveEmm
libStatTimer.so.2:_ZN12GpuStatTimer7getMeanEm
libStatTimer.so.2:_ZN12GpuStatTimer9AddSampleEmP7FFTPlanP10_cl_kerneljPP9_cl_eventRKSt6vectorImSaImEESB_
libStatTimer.so.2:_ZN12GpuStatTimer9getStdDevEm
libStatTimer.so.2:_ZN12GpuStatTimerC1Ev
libStatTimer.so.2:_ZN12GpuStatTimerC2Ev
libStatTimer.so.2:_ZN12GpuStatTimerD0Ev
libStatTimer.so.2:_ZN12GpuStatTimerD1Ev
libStatTimer.so.2:_ZN12GpuStatTimerD2Ev
libStatTimer.so.2:_ZNK12CpuStatTimer11getVarianceEm
libStatTimer.so.2:_ZNK12CpuStatTimer14getAverageTimeEm
libStatTimer.so.2:_ZNK12CpuStatTimer14getMinimumTimeEm
libStatTimer.so.2:_ZNK12CpuStatTimer7getMeanEm
libStatTimer.so.2:_ZNK12CpuStatTimer9getStdDevEm
libStatTimer.so.2:_ZlsRSoRK12CpuStatTimer
libStatTimer.so.2:_ZlsRSoRK12GpuStatTimer
libStatTimer.so.2:_ZltRK8StatDataS1_
libStatTimer.so.2:getStatTimer
libclFFT.so.2:MD5_Final
libclFFT.so.2:MD5_Init
libclFFT.so.2:MD5_Update
libclFFT.so.2:_Z11checkDevExtNSt7__cxx1112basic_stringIcSt11char_traitsIcESaIcEEERKP13_cl_device_id
libclFFT.so.2:_Z12selectActionP7FFTPlanRP9FFTActionPP17_cl_command_queue
libclFFT.so.2:_Z13getKernelNameB5cxx1115clfftGeneratorsmb
libclFFT.so.2:_Z20clfftInitBinaryCachev
libclFFT.so.2:_Z28clfftGetRequestLibNoMemAllocv
libclFFT.so.2:_Z29clfftInitRequestLibNoMemAllocv
libclFFT.so.2:_Z30clfftCreateDefaultPlanInternalPmP11_cl_context9clfftDim_PKm
libclFFT.so.2:_ZN13FFTCopyActionC1EmP7FFTPlanP17_cl_command_queueR12clfftStatus_
libclFFT.so.2:_ZN13FFTCopyActionC2EmP7FFTPlanP17_cl_command_queueR12clfftStatus_
libclFFT.so.2:_ZN15FFTBinaryLookup10CacheEntry16exclusive_createEv
libclFFT.so.2:_ZN15FFTBinaryLookup10CacheEntry19successful_creationEv
libclFFT.so.2:_ZN15FFTBinaryLookup10CacheEntry5closeEv
libclFFT.so.2:_ZN15FFTBinaryLookup10CacheEntryC1ERKNSt7__cxx1112basic_stringIcSt11char_traitsIcESaIcEEE
libclFFT.so.2:_ZN15FFTBinaryLookup10CacheEntryC2ERKNSt7__cxx1112basic_stringIcSt11char_traitsIcESaIcEEE
libclFFT.so.2:_ZN15FFTBinaryLookup10getProgramEv
libclFFT.so.2:_ZN15FFTBinaryLookup10loadHeaderERSt14basic_ifstreamIcSt11char_traitsIcEEm
libclFFT.so.2:_ZN15FFTBinaryLookup10setProgramEP11_cl_programPKc
libclFFT.so.2:_ZN15FFTBinaryLookup10variantIntEi
libclFFT.so.2:_ZN15FFTBinaryLookup10variantRawEPKvm
libclFFT.so.2:_ZN15FFTBinaryLookup13populateCacheEv
libclFFT.so.2:_ZN15FFTBinaryLookup13variantDoubleEd
libclFFT.so.2:_ZN15FFTBinaryLookup14writeCacheFileERSt6vectorIPhSaIS1_EE
libclFFT.so.2:_ZN15FFTBinaryLookup15buildFromBinaryEPKvm
libclFFT.so.2:_ZN15FFTBinaryLookup15buildFromSourceEPKc
libclFFT.so.2:_ZN15FFTBinaryLookup15finalizeVariantEv
libclFFT.so.2:_ZN15FFTBinaryLookup16tryLoadCacheFileEv
libclFFT.so.2:_ZN15FFTBinaryLookup21buildFromLoadedBinaryEPKvm
libclFFT.so.2:_ZN15FFTBinaryLookup21variantCompileOptionsERKNSt7__cxx1112basic_stringIcSt11char_traitsIcESaIcEEE
libclFFT.so.2:_ZN15FFTBinaryLookup22buildProgramFromBinaryEPKcmP11_cl_contextP13_cl_device_idRiS1_
libclFFT.so.2:_ZN15FFTBinaryLookup22buildProgramFromSourceEPKcP11_cl_contextP13_cl_device_idRiS1_
libclFFT.so.2:_ZN15FFTBinaryLookup22loadBinaryAndSignatureERSt14basic_ifstreamIcSt11char_traitsIcEE
libclFFT.so.2:_ZN15FFTBinaryLookup27retrieveDeviceAndDriverInfoEv
libclFFT.so.2:_ZN15FFTBinaryLookup5foundEv
libclFFT.so.2:_ZN15FFTBinaryLookup7VariantC1ENS_11VariantKindEPcm
libclFFT.so.2:_ZN15FFTBinaryLookup7VariantC1ERKS0_
libclFFT.so.2:_ZN15FFTBinaryLookup7VariantC1Ev
libclFFT.so.2:_ZN15FFTBinaryLookup7VariantC2ENS_11VariantKindEPcm
libclFFT.so.2:_ZN15FFTBinaryLookup7VariantC2ERKS0_
libclFFT.so.2:_ZN15FFTBinaryLookup7VariantC2Ev
libclFFT.so.2:_ZN15FFTBinaryLookup7VariantD1Ev
libclFFT.so.2:_ZN15FFTBinaryLookup7VariantD2Ev
libclFFT.so.2:_ZN15FFTBinaryLookup7VariantaSERKS0_
libclFFT.so.2:_ZN15FFTBinaryLookupC1E15clfftGeneratorsmP11_cl_contextP13_cl_device_id
libclFFT.so.2:_ZN15FFTBinaryLookupC2E15clfftGeneratorsmP11_cl_contextP13_cl_device_id
libclFFT.so.2:_ZN15FFTBinaryLookupD1Ev
libclFFT.so.2:_ZN15FFTBinaryLookupD2Ev
libclFFT.so.2:_ZN17FFTStockhamActionC1EmP7FFTPlanP17_cl_command_queueR12clfftStatus_
libclFFT.so.2:_ZN17FFTStockhamActionC2EmP7FFTPlanP17_cl_command_queueR12clfftStatus_
libclFFT.so.2:_ZN17StockhamGenerator14DetermineSizesERKmS1_RmS2_RNS_9PrecisionE
libclFFT.so.2:_ZN17StockhamGenerator17ReadParameterFileERNS_9ParamReadE
libclFFT.so.2:_ZN17StockhamGenerator18ReadKernelFromFileERNSt7__cxx1112basic_stringIcSt11char_traitsIcESaIcEEE
libclFFT.so.2:_ZN21FFTTransposeGCNActionC1EmP7FFTPlanP17_cl_command_queueR12clfftStatus_
libclFFT.so.2:_ZN21FFTTransposeGCNActionC2EmP7FFTPlanP17_cl_command_queueR12clfftStatus_
libclFFT.so.2:_ZN22FFTGeneratedCopyAction10initParamsEv
libclFFT.so.2:_ZN22FFTGeneratedCopyAction12getWorkSizesERSt6vectorImSaImEES3_
libclFFT.so.2:_ZN22FFTGeneratedCopyAction14generateKernelER7FFTRepoP17_cl_command_queue
libclFFT.so.2:_ZN22FFTGeneratedCopyAction18buildForwardKernelEv
libclFFT.so.2:_ZN22FFTGeneratedCopyAction19buildBackwardKernelEv
libclFFT.so.2:_ZN22FFTGeneratedCopyActionC1EmP7FFTPlanP17_cl_command_queueR12clfftStatus_
libclFFT.so.2:_ZN22FFTGeneratedCopyActionC2EmP7FFTPlanP17_cl_command_queueR12clfftStatus_
libclFFT.so.2:_ZN24FFTTransposeSquareActionC1EmP7FFTPlanP17_cl_command_queueR12clfftStatus_
libclFFT.so.2:_ZN24FFTTransposeSquareActionC2EmP7FFTPlanP17_cl_command_queueR12clfftStatus_
libclFFT.so.2:_ZN25clfft_transpose_generator10OffsetCalcERNSt7__cxx1118basic_stringstreamIcSt11char_traitsIcESaIcEEERK21FFTKernelGenKeyParamsb
libclFFT.so.2:_ZN25clfft_transpose_generator10get_cyclesEPmmm
libclFFT.so.2:_ZN25clfft_transpose_generator13genSwapKernelERK18FFTKernelSignatureI21FFTKernelGenKeyParamsL15FFTActionImplID1EERNSt7__cxx1112basic_stringIcSt11char_traitsIcESaIcEEESC_RKmm
libclFFT.so.2:_ZN25clfft_transpose_generator14genTwiddleMathERK21FFTKernelGenKeyParamsRNSt7__cxx1118basic_stringstreamIcSt11char_traitsIcESaIcEEERKNS3_12basic_stringIcS6_S7_EEb
libclFFT.so.2:_ZN25clfft_transpose_generator15Swap_OffsetCalcERNSt7__cxx1118basic_stringstreamIcSt11char_traitsIcESaIcEEERK21FFTKernelGenKeyParams
libclFFT.so.2:_ZN25clfft_transpose_generator20genSwapKernelGeneralERK18FFTKernelSignatureI21FFTKernelGenKeyParamsL15FFTActionImplID1EERNSt7__cxx1112basic_stringIcSt11char_traitsIcESaIcEEESC_RKmm
libclFFT.so.2:_ZN25clfft_transpose_generator21genTransposePrototypeERK18FFTKernelSignatureI21FFTKernelGenKeyParamsL15FFTActionImplID1EERKmRKNSt7__cxx1112basic_stringIcSt11char_traitsIcESaIcEEESF_SF_RNS8_18basic_stringstreamIcSB_SC_EERSD_SJ_
libclFFT.so.2:_ZN25clfft_transpose_generator23permutation_calculationEmmRSt6vectorIS0_ImSaImEESaIS2_EE
libclFFT.so.2:_ZN25clfft_transpose_generator25genTransposeKernelBatchedERK18FFTKernelSignatureI21FFTKernelGenKeyParamsL15FFTActionImplID1EERNSt7__cxx1112basic_stringIcSt11char_traitsIcESaIcEEERKmm
libclFFT.so.2:_ZN25clfft_transpose_generator33OffsetCalcLeadingDimensionBatchedERNSt7__cxx1118basic_stringstreamIcSt11char_traitsIcESaIcEEERK21FFTKernelGenKeyParams
libclFFT.so.2:_ZN25clfft_transpose_generator37genTwiddleMathLeadingDimensionBatchedERK21FFTKernelGenKeyParamsRNSt7__cxx1118basic_stringstreamIcSt11char_traitsIcESaIcEEERKNS3_12basic_stringIcS6_S7_EEb
libclFFT.so.2:_ZN25clfft_transpose_generator41genTransposeKernelLeadingDimensionBatchedERK18FFTKernelSignatureI21FFTKernelGenKeyParamsL15FFTActionImplID1EERNSt7__cxx1112basic_stringIcSt11char_traitsIcESaIcEEERKmm
libclFFT.so.2:_ZN25clfft_transpose_generator44genTransposePrototypeLeadingDimensionBatchedERK18FFTKernelSignatureI21FFTKernelGenKeyParamsL15FFTActionImplID1EERKmRKNSt7__cxx1112basic_stringIcSt11char_traitsIcESaIcEEESF_SF_RNS8_18basic_stringstreamIcSB_SC_EERSD_SJ_
libclFFT.so.2:_ZN26FFTGeneratedStockhamAction10initParamsEv
libclFFT.so.2:_ZN26FFTGeneratedStockhamAction12getWorkSizesERSt6vectorImSaImEES3_
libclFFT.so.2:_ZN26FFTGeneratedStockhamAction14generateKernelER7FFTRepoP17_cl_command_queue
libclFFT.so.2:_ZN26FFTGeneratedStockhamAction18buildForwardKernelEv
libclFFT.so.2:_ZN26FFTGeneratedStockhamAction19buildBackwardKernelEv
libclFFT.so.2:_ZN26FFTGeneratedStockhamActionC1EmP7FFTPlanP17_cl_command_queueR12clfftStatus_
libclFFT.so.2:_ZN26FFTGeneratedStockhamActionC2EmP7FFTPlanP17_cl_command_queueR12clfftStatus_
libclFFT.so.2:_ZN27FFTTransposeNonSquareActionC1EmP7FFTPlanP17_cl_command_queueR12clfftStatus_
libclFFT.so.2:_ZN27FFTTransposeNonSquareActionC2EmP7FFTPlanP17_cl_command_queueR12clfftStatus_
libclFFT.so.2:_ZN30FFTGeneratedTransposeGCNAction10initParamsEv
libclFFT.so.2:_ZN30FFTGeneratedTransposeGCNAction12getWorkSizesERSt6vectorImSaImEES3_
libclFFT.so.2:_ZN30FFTGeneratedTransposeGCNAction14generateKernelER7FFTRepoP17_cl_command_queue
libclFFT.so.2:_ZN30FFTGeneratedTransposeGCNAction18buildForwardKernelEv
libclFFT.so.2:_ZN30FFTGeneratedTransposeGCNAction19buildBackwardKernelEv
libclFFT.so.2:_ZN30FFTGeneratedTransposeGCNActionC1EmP7FFTPlanP17_cl_command_queueR12clfftStatus_
libclFFT.so.2:_ZN30FFTGeneratedTransposeGCNActionC2EmP7FFTPlanP17_cl_command_queueR12clfftStatus_
libclFFT.so.2:_ZN33FFTGeneratedTransposeSquareAction10initParamsEv
libclFFT.so.2:_ZN33FFTGeneratedTransposeSquareAction12getWorkSizesERSt6vectorImSaImEES3_
libclFFT.so.2:_ZN33FFTGeneratedTransposeSquareAction14generateKernelER7FFTRepoP17_cl_command_queue
libclFFT.so.2:_ZN33FFTGeneratedTransposeSquareAction18buildForwardKernelEv
libclFFT.so.2:_ZN33FFTGeneratedTransposeSquareAction19buildBackwardKernelEv
libclFFT.so.2:_ZN33FFTGeneratedTransposeSquareActionC1EmP7FFTPlanP17_cl_command_queueR12clfftStatus_
libclFFT.so.2:_ZN33FFTGeneratedTransposeSquareActionC2EmP7FFTPlanP17_cl_command_queueR12clfftStatus_
libclFFT.so.2:_ZN36FFTGeneratedTransposeNonSquareAction10initParamsEv
libclFFT.so.2:_ZN36FFTGeneratedTransposeNonSquareAction12getWorkSizesERSt6vectorImSaImEES3_
libclFFT.so.2:_ZN36FFTGeneratedTransposeNonSquareAction14generateKernelER7FFTRepoP17_cl_command_queue
libclFFT.so.2:_ZN36FFTGeneratedTransposeNonSquareAction18buildForwardKernelEv
libclFFT.so.2:_ZN36FFTGeneratedTransposeNonSquareAction19buildBackwardKernelEv
libclFFT.so.2:_ZN36FFTGeneratedTransposeNonSquareActionC1EmP7FFTPlanP17_cl_command_queueR12clfftStatus_
libclFFT.so.2:_ZN36FFTGeneratedTransposeNonSquareActionC2EmP7FFTPlanP17_cl_command_queueR12clfftStatus_
libclFFT.so.2:_ZN7FFTPlan11SetEnvelopeEv
libclFFT.so.2:_ZN7FFTPlan14ReleaseBuffersEv
libclFFT.so.2:_ZN7FFTPlan15AllocateBuffersEv
libclFFT.so.2:_ZN7FFTPlan34ConstructAndEnqueueConstantBuffersEPP17_cl_command_queue
libclFFT.so.2:_ZN7FFTRepo10createPlanEPmRP7FFTPlan
libclFFT.so.2:_ZN7FFTRepo10deletePlanEPm
libclFFT.so.2:_ZN7FFTRepo11getclKernelEP11_cl_program15clfftDirection_RP10_cl_kernelRP8lockRAIIILb0EE
libclFFT.so.2:_ZN7FFTRepo11setclKernelEP11_cl_program15clfftDirection_RKP10_cl_kernel
libclFFT.so.2:_ZN7FFTRepo12getclProgramE15clfftGeneratorsPK24FFTKernelSignatureHeaderRP11_cl_programRKP13_cl_device_idRKP11_cl_context
libclFFT.so.2:_ZN7FFTRepo12setclProgramE15clfftGeneratorsPK24FFTKernelSignatureHeaderRKP11_cl_programRKP13_cl_device_idRKP11_cl_context
libclFFT.so.2:_ZN7FFTRepo14getProgramCodeE15clfftGeneratorsPK24FFTKernelSignatureHeaderRNSt7__cxx1112basic_stringIcSt11char_traitsIcESaIcEEERKP13_cl_device_idRKP11_cl_context
libclFFT.so.2:_ZN7FFTRepo14setProgramCodeE15clfftGeneratorsPK24FFTKernelSignatureHeaderRKNSt7__cxx1112basic_stringIcSt11char_traitsIcESaIcEEERKP13_cl_device_idRKP11_cl_context
libclFFT.so.2:_ZN7FFTRepo16releaseResourcesEv
libclFFT.so.2:_ZN7FFTRepo20getProgramEntryPointE15clfftGeneratorsPK24FFTKernelSignatureHeader15clfftDirection_RNSt7__cxx1112basic_stringIcSt11char_traitsIcESaIcEEERKP13_cl_device_idRKP11_cl_context
libclFFT.so.2:_ZN7FFTRepo21setProgramEntryPointsE15clfftGeneratorsPK24FFTKernelSignatureHeaderPKcS5_RKP13_cl_device_idRKP11_cl_context
libclFFT.so.2:_ZN7FFTRepo7getPlanEmRP7FFTPlanRP8lockRAIIILb0EE
libclFFT.so.2:_ZN9FFTAction11writeKernelEm15clfftGeneratorsPK24FFTKernelSignatureHeaderRKP11_cl_contextRKP13_cl_device_id
libclFFT.so.2:_ZN9FFTAction14compileKernelsEP17_cl_command_queuemP7FFTPlan
libclFFT.so.2:_ZN9FFTAction21selectBufferArgumentsEP7FFTPlanPP7_cl_memS4_RSt6vectorIS3_SaIS3_EES8_
libclFFT.so.2:_ZN9FFTAction7enqueueEm15clfftDirection_jPP17_cl_command_queuejPKP9_cl_eventPS5_PP7_cl_memSB_
libclFFT.so.2:_ZN9FFTActionC1EP7FFTPlanR12clfftStatus_
libclFFT.so.2:_ZN9FFTActionC2EP7FFTPlanR12clfftStatus_
libclFFT.so.2:_ZNK7FFTPlan11ElementSizeEv
libclFFT.so.2:_ZNK7FFTPlan11GetEnvelopeEPPK11FFTEnvelope
libclFFT.so.2:_ZNK7FFTPlan14GetMax1DLengthEPm
libclFFT.so.2:_ZNK7FFTPlan22GetMax1DLengthStockhamEPm
libclFFT.so.2:clfftBakePlan
libclFFT.so.2:clfftCopyPlan
libclFFT.so.2:clfftCreateDefaultPlan
libclFFT.so.2:clfftDestroyPlan
libclFFT.so.2:clfftEnqueueTransform
libclFFT.so.2:clfftGetLayout
libclFFT.so.2:clfftGetPlanBatchSize
libclFFT.so.2:clfftGetPlanContext
libclFFT.so.2:clfftGetPlanDim
libclFFT.so.2:clfftGetPlanDistance
libclFFT.so.2:clfftGetPlanInStride
libclFFT.so.2:clfftGetPlanLength
libclFFT.so.2:clfftGetPlanOutStride
libclFFT.so.2:clfftGetPlanPrecision
libclFFT.so.2:clfftGetPlanScale
libclFFT.so.2:clfftGetPlanTransposeResult
libclFFT.so.2:clfftGetResultLocation
libclFFT.so.2:clfftGetTmpBufSize
libclFFT.so.2:clfftGetVersion
libclFFT.so.2:clfftLocalMemSize
libclFFT.so.2:clfftSetLayout
libclFFT.so.2:clfftSetPlanBatchSize
libclFFT.so.2:clfftSetPlanCallback
libclFFT.so.2:clfftSetPlanDim
libclFFT.so.2:clfftSetPlanDistance
libclFFT.so.2:clfftSetPlanInStride
libclFFT.so.2:clfftSetPlanLength
libclFFT.so.2:clfftSetPlanOutStride
libclFFT.so.2:clfftSetPlanPrecision
libclFFT.so.2:clfftSetPlanScale
libclFFT.so.2:clfftSetPlanTransposeResult
libclFFT.so.2:clfftSetResultLocation
libclFFT.so.2:clfftSetup
libclFFT.so.2:clfftTeardown
libclFFT.so.2:md5sum
